target datalayout = "e-m:e-p270:32:32-p271:32:32-p272:64:64-i64:64-i128:128-f80:128-n8:16:32:64-S128"
target triple = "x86_64-pc-linux-gnu"

%struct.expert_field = type { i32, i32 }

@hf_uftp_keyreq = internal global i32 0, align 4
@hf_uftp_keyreq_func = internal global i32 0, align 4
@hf_uftp_keyreq_reserved = internal global i32 0, align 4
@ett_uftp_keyreq = internal global i32 0, align 4
@ei_uftp_length_invalid = internal global %struct.expert_field zeroinitializer, align 4
@.str.289 = private unnamed_addr constant [19 x i8] c"Invalid length: %d\00", align 1

; Function Attrs: null_pointer_is_valid sspstrong uwtable
define internal void @dissect_uftp_keyreq(ptr noundef %0, ptr noundef %1, ptr noundef %2) #0 {
  %4 = alloca ptr, align 8
  %5 = alloca ptr, align 8
  %6 = alloca ptr, align 8
  %7 = alloca ptr, align 8
  %8 = alloca ptr, align 8
  %9 = alloca i32, align 4
  %10 = alloca i32, align 4
  store ptr %0, ptr %4, align 8
  store ptr %1, ptr %5, align 8
  store ptr %2, ptr %6, align 8
  call void @llvm.lifetime.start.p0(i64 8, ptr %7) #3
  store ptr null, ptr %7, align 8
  call void @llvm.lifetime.start.p0(i64 8, ptr %8) #3
  store ptr null, ptr %8, align 8
  call void @llvm.lifetime.start.p0(i64 4, ptr %9) #3
  store i32 0, ptr %9, align 4
  %11 = load ptr, ptr %4, align 8
  %12 = call i32 @tvb_reported_length(ptr noundef %11)
  %13 = icmp ult i32 %12, 4
  br i1 %13, label %14, label %22

14:                                               ; preds = %3
  %15 = load ptr, ptr %6, align 8
  %16 = load ptr, ptr %5, align 8
  %17 = load ptr, ptr %4, align 8
  %18 = load i32, ptr %9, align 4
  %19 = load ptr, ptr %4, align 8
  %20 = call i32 @tvb_reported_length(ptr noundef %19)
  %21 = call ptr (ptr, ptr, ptr, ptr, i32, i32, ptr, ...) @proto_tree_add_expert_format(ptr noundef %15, ptr noundef %16, ptr noundef @ei_uftp_length_invalid, ptr noundef %17, i32 noundef %18, i32 noundef -1, ptr noundef @.str.289, i32 noundef %20)
  store i32 1, ptr %10, align 4
  br label %43

22:                                               ; preds = %3
  %23 = load ptr, ptr %6, align 8
  %24 = load i32, ptr @hf_uftp_keyreq, align 4
  %25 = load ptr, ptr %4, align 8
  %26 = load i32, ptr %9, align 4
  %27 = call ptr @proto_tree_add_item(ptr noundef %23, i32 noundef %24, ptr noundef %25, i32 noundef %26, i32 noundef -1, i32 noundef 0)
  store ptr %27, ptr %7, align 8
  %28 = load ptr, ptr %7, align 8
  %29 = load i32, ptr @ett_uftp_keyreq, align 4
  %30 = call ptr @proto_item_add_subtree(ptr noundef %28, i32 noundef %29)
  store ptr %30, ptr %8, align 8
  %31 = load ptr, ptr %8, align 8
  %32 = load i32, ptr @hf_uftp_keyreq_func, align 4
  %33 = load ptr, ptr %4, align 8
  %34 = load i32, ptr %9, align 4
  %35 = call ptr @proto_tree_add_item(ptr noundef %31, i32 noundef %32, ptr noundef %33, i32 noundef %34, i32 noundef 1, i32 noundef 0)
  %36 = load i32, ptr %9, align 4
  %37 = add i32 %36, 1
  store i32 %37, ptr %9, align 4
  %38 = load ptr, ptr %8, align 8
  %39 = load i32, ptr @hf_uftp_keyreq_reserved, align 4
  %40 = load ptr, ptr %4, align 8
  %41 = load i32, ptr %9, align 4
  %42 = call ptr @proto_tree_add_item(ptr noundef %38, i32 noundef %39, ptr noundef %40, i32 noundef %41, i32 noundef 3, i32 noundef 0)
  store i32 0, ptr %10, align 4
  br label %43

43:                                               ; preds = %22, %14
  call void @llvm.lifetime.end.p0(i64 4, ptr %9) #3
  call void @llvm.lifetime.end.p0(i64 8, ptr %8) #3
  call void @llvm.lifetime.end.p0(i64 8, ptr %7) #3
  %44 = load i32, ptr %10, align 4
  switch i32 %44, label %46 [
    i32 0, label %45
    i32 1, label %45
  ]

45:                                               ; preds = %43, %43
  ret void

46:                                               ; preds = %43
  unreachable
}